target datalayout = "e-m:e-p270:32:32-p271:32:32-p272:64:64-i64:64-i128:128-f80:128-n8:16:32:64-S128"
target triple = "x86_64-pc-linux-gnu"

%struct.SDL_PixelFormatDetails = type { i32, i8, i8, [2 x i8], i32, i32, i32, i32, i8, i8, i8, i8, i8, i8, i8, i8 }

; Function Attrs: nounwind uwtable
define internal i32 @copy_transl_565(ptr noundef %0, ptr noundef %1, i32 noundef %2, ptr noundef %3, ptr noundef %4) #0 {
  %6 = alloca ptr, align 8
  %7 = alloca ptr, align 8
  %8 = alloca i32, align 4
  %9 = alloca ptr, align 8
  %10 = alloca ptr, align 8
  %11 = alloca i32, align 4
  %12 = alloca ptr, align 8
  %13 = alloca i32, align 4
  %14 = alloca i32, align 4
  %15 = alloca i32, align 4
  %16 = alloca i32, align 4
  %17 = alloca i16, align 2
  store ptr %0, ptr %6, align 8
  store ptr %1, ptr %7, align 8
  store i32 %2, ptr %8, align 4
  store ptr %3, ptr %9, align 8
  store ptr %4, ptr %10, align 8
  call void @llvm.lifetime.start.p0(i64 4, ptr %11) #8
  call void @llvm.lifetime.start.p0(i64 8, ptr %12) #8
  %18 = load ptr, ptr %6, align 8
  store ptr %18, ptr %12, align 8
  store i32 0, ptr %11, align 4
  br label %19

19:                                               ; preds = %128, %5
  %20 = load i32, ptr %11, align 4
  %21 = load i32, ptr %8, align 4
  %22 = icmp slt i32 %20, %21
  br i1 %22, label %23, label %131

23:                                               ; preds = %19
  call void @llvm.lifetime.start.p0(i64 4, ptr %13) #8
  call void @llvm.lifetime.start.p0(i64 4, ptr %14) #8
  call void @llvm.lifetime.start.p0(i64 4, ptr %15) #8
  call void @llvm.lifetime.start.p0(i64 4, ptr %16) #8
  call void @llvm.lifetime.start.p0(i64 2, ptr %17) #8
  %24 = load ptr, ptr %7, align 8
  %25 = load i32, ptr %24, align 4
  %26 = load ptr, ptr %9, align 8
  %27 = getelementptr inbounds nuw %struct.SDL_PixelFormatDetails, ptr %26, i32 0, i32 4
  %28 = load i32, ptr %27, align 4
  %29 = and i32 %25, %28
  %30 = load ptr, ptr %9, align 8
  %31 = getelementptr inbounds nuw %struct.SDL_PixelFormatDetails, ptr %30, i32 0, i32 12
  %32 = load i8, ptr %31, align 4
  %33 = zext i8 %32 to i32
  %34 = lshr i32 %29, %33
  store i32 %34, ptr %13, align 4
  %35 = load ptr, ptr %7, align 8
  %36 = load i32, ptr %35, align 4
  %37 = load ptr, ptr %9, align 8
  %38 = getelementptr inbounds nuw %struct.SDL_PixelFormatDetails, ptr %37, i32 0, i32 5
  %39 = load i32, ptr %38, align 4
  %40 = and i32 %36, %39
  %41 = load ptr, ptr %9, align 8
  %42 = getelementptr inbounds nuw %struct.SDL_PixelFormatDetails, ptr %41, i32 0, i32 13
  %43 = load i8, ptr %42, align 1
  %44 = zext i8 %43 to i32
  %45 = lshr i32 %40, %44
  store i32 %45, ptr %14, align 4
  %46 = load ptr, ptr %7, align 8
  %47 = load i32, ptr %46, align 4
  %48 = load ptr, ptr %9, align 8
  %49 = getelementptr inbounds nuw %struct.SDL_PixelFormatDetails, ptr %48, i32 0, i32 6
  %50 = load i32, ptr %49, align 4
  %51 = and i32 %47, %50
  %52 = load ptr, ptr %9, align 8
  %53 = getelementptr inbounds nuw %struct.SDL_PixelFormatDetails, ptr %52, i32 0, i32 14
  %54 = load i8, ptr %53, align 2
  %55 = zext i8 %54 to i32
  %56 = lshr i32 %51, %55
  store i32 %56, ptr %15, align 4
  %57 = load ptr, ptr %7, align 8
  %58 = load i32, ptr %57, align 4
  %59 = load ptr, ptr %9, align 8
  %60 = getelementptr inbounds nuw %struct.SDL_PixelFormatDetails, ptr %59, i32 0, i32 7
  %61 = load i32, ptr %60, align 4
  %62 = and i32 %58, %61
  %63 = load ptr, ptr %9, align 8
  %64 = getelementptr inbounds nuw %struct.SDL_PixelFormatDetails, ptr %63, i32 0, i32 15
  %65 = load i8, ptr %64, align 1
  %66 = zext i8 %65 to i32
  %67 = lshr i32 %62, %66
  store i32 %67, ptr %16, align 4
  %68 = load i32, ptr %13, align 4
  %69 = load ptr, ptr %10, align 8
  %70 = getelementptr inbounds nuw %struct.SDL_PixelFormatDetails, ptr %69, i32 0, i32 8
  %71 = load i8, ptr %70, align 4
  %72 = zext i8 %71 to i32
  %73 = sub nsw i32 8, %72
  %74 = lshr i32 %68, %73
  %75 = load ptr, ptr %10, align 8
  %76 = getelementptr inbounds nuw %struct.SDL_PixelFormatDetails, ptr %75, i32 0, i32 12
  %77 = load i8, ptr %76, align 4
  %78 = zext i8 %77 to i32
  %79 = shl i32 %74, %78
  %80 = load i32, ptr %14, align 4
  %81 = load ptr, ptr %10, align 8
  %82 = getelementptr inbounds nuw %struct.SDL_PixelFormatDetails, ptr %81, i32 0, i32 9
  %83 = load i8, ptr %82, align 1
  %84 = zext i8 %83 to i32
  %85 = sub nsw i32 8, %84
  %86 = lshr i32 %80, %85
  %87 = load ptr, ptr %10, align 8
  %88 = getelementptr inbounds nuw %struct.SDL_PixelFormatDetails, ptr %87, i32 0, i32 13
  %89 = load i8, ptr %88, align 1
  %90 = zext i8 %89 to i32
  %91 = shl i32 %86, %90
  %92 = or i32 %79, %91
  %93 = load i32, ptr %15, align 4
  %94 = load ptr, ptr %10, align 8
  %95 = getelementptr inbounds nuw %struct.SDL_PixelFormatDetails, ptr %94, i32 0, i32 10
  %96 = load i8, ptr %95, align 2
  %97 = zext i8 %96 to i32
  %98 = sub nsw i32 8, %97
  %99 = lshr i32 %93, %98
  %100 = load ptr, ptr %10, align 8
  %101 = getelementptr inbounds nuw %struct.SDL_PixelFormatDetails, ptr %100, i32 0, i32 14
  %102 = load i8, ptr %101, align 2
  %103 = zext i8 %102 to i32
  %104 = shl i32 %99, %103
  %105 = or i32 %92, %104
  %106 = load ptr, ptr %10, align 8
  %107 = getelementptr inbounds nuw %struct.SDL_PixelFormatDetails, ptr %106, i32 0, i32 7
  %108 = load i32, ptr %107, align 4
  %109 = or i32 %105, %108
  %110 = trunc i32 %109 to i16
  store i16 %110, ptr %17, align 2
  %111 = load i16, ptr %17, align 2
  %112 = zext i16 %111 to i32
  %113 = and i32 %112, 2016
  %114 = shl i32 %113, 16
  %115 = load i16, ptr %17, align 2
  %116 = zext i16 %115 to i32
  %117 = and i32 %116, 63519
  %118 = or i32 %114, %117
  %119 = load i32, ptr %16, align 4
  %120 = shl i32 %119, 2
  %121 = and i32 %120, 2016
  %122 = or i32 %118, %121
  %123 = load ptr, ptr %12, align 8
  store i32 %122, ptr %123, align 4
  %124 = load ptr, ptr %7, align 8
  %125 = getelementptr inbounds nuw i32, ptr %124, i32 1
  store ptr %125, ptr %7, align 8
  %126 = load ptr, ptr %12, align 8
  %127 = getelementptr inbounds nuw i32, ptr %126, i32 1
  store ptr %127, ptr %12, align 8
  call void @llvm.lifetime.end.p0(i64 2, ptr %17) #8
  call void @llvm.lifetime.end.p0(i64 4, ptr %16) #8
  call void @llvm.lifetime.end.p0(i64 4, ptr %15) #8
  call void @llvm.lifetime.end.p0(i64 4, ptr %14) #8
  call void @llvm.lifetime.end.p0(i64 4, ptr %13) #8
  br label %128

128:                                              ; preds = %23
  %129 = load i32, ptr %11, align 4
  %130 = add nsw i32 %129, 1
  store i32 %130, ptr %11, align 4
  br label %19, !llvm.loop !65

131:                                              ; preds = %19
  %132 = load i32, ptr %8, align 4
  %133 = mul nsw i32 %132, 4
  call void @llvm.lifetime.end.p0(i64 8, ptr %12) #8
  call void @llvm.lifetime.end.p0(i64 4, ptr %11) #8
  ret i32 %133
}