; Function Attrs: nofree norecurse nosync nounwind memory(argmem: readwrite) uwtable
define internal range(i32 -2147483648, 2147483645) i32 @copy_transl_565(ptr noundef writeonly captures(none) %0, ptr noundef readonly captures(none) %1, i32 noundef %2, ptr noundef readonly captures(none) %3, ptr noundef readonly captures(none) %4) unnamed_addr #7 {
  %6 = icmp sgt i32 %2, 0
  br i1 %6, label %.lr.ph, label %._crit_edge

.lr.ph:                                           ; preds = %5
  %7 = getelementptr inbounds nuw i8, ptr %3, i64 8
  %8 = getelementptr inbounds nuw i8, ptr %3, i64 28
  %9 = getelementptr inbounds nuw i8, ptr %3, i64 12
  %10 = getelementptr inbounds nuw i8, ptr %3, i64 29
  %11 = getelementptr inbounds nuw i8, ptr %3, i64 16
  %12 = getelementptr inbounds nuw i8, ptr %3, i64 30
  %13 = getelementptr inbounds nuw i8, ptr %3, i64 20
  %14 = getelementptr inbounds nuw i8, ptr %3, i64 31
  %15 = getelementptr inbounds nuw i8, ptr %4, i64 24
  %16 = getelementptr inbounds nuw i8, ptr %4, i64 28
  %17 = getelementptr inbounds nuw i8, ptr %4, i64 25
  %18 = getelementptr inbounds nuw i8, ptr %4, i64 29
  %19 = getelementptr inbounds nuw i8, ptr %4, i64 26
  %20 = getelementptr inbounds nuw i8, ptr %4, i64 30
  %21 = getelementptr inbounds nuw i8, ptr %4, i64 20
  br label %22

22:                                               ; preds = %.lr.ph, %22
  %.037 = phi ptr [ %1, %.lr.ph ], [ %76, %22 ]
  %.03236 = phi i32 [ 0, %.lr.ph ], [ %78, %22 ]
  %.03335 = phi ptr [ %0, %.lr.ph ], [ %77, %22 ]
  %23 = load i32, ptr %.037, align 4
  %24 = load i32, ptr %7, align 4
  %25 = and i32 %24, %23
  %26 = load i8, ptr %8, align 4
  %27 = zext nneg i8 %26 to i32
  %28 = lshr i32 %25, %27
  %29 = load i32, ptr %9, align 4
  %30 = and i32 %29, %23
  %31 = load i8, ptr %10, align 1
  %32 = zext nneg i8 %31 to i32
  %33 = lshr i32 %30, %32
  %34 = load i32, ptr %11, align 4
  %35 = and i32 %34, %23
  %36 = load i8, ptr %12, align 2
  %37 = zext nneg i8 %36 to i32
  %38 = lshr i32 %35, %37
  %39 = load i32, ptr %13, align 4
  %40 = and i32 %39, %23
  %41 = load i8, ptr %14, align 1
  %42 = zext nneg i8 %41 to i32
  %43 = lshr i32 %40, %42
  %44 = load i8, ptr %15, align 4
  %45 = zext i8 %44 to i32
  %46 = sub nsw i32 8, %45
  %47 = lshr i32 %28, %46
  %48 = load i8, ptr %16, align 4
  %49 = zext nneg i8 %48 to i32
  %50 = shl i32 %47, %49
  %51 = load i8, ptr %17, align 1
  %52 = zext i8 %51 to i32
  %53 = sub nsw i32 8, %52
  %54 = lshr i32 %33, %53
  %55 = load i8, ptr %18, align 1
  %56 = zext nneg i8 %55 to i32
  %57 = shl i32 %54, %56
  %58 = or i32 %57, %50
  %59 = load i8, ptr %19, align 2
  %60 = zext i8 %59 to i32
  %61 = sub nsw i32 8, %60
  %62 = lshr i32 %38, %61
  %63 = load i8, ptr %20, align 2
  %64 = zext nneg i8 %63 to i32
  %65 = shl i32 %62, %64
  %66 = load i32, ptr %21, align 4
  %67 = or i32 %58, %66
  %68 = or i32 %67, %65
  %69 = shl i32 %68, 16
  %70 = and i32 %69, 132120576
  %71 = and i32 %68, 63519
  %72 = shl i32 %43, 2
  %73 = and i32 %72, 2016
  %74 = or disjoint i32 %71, %73
  %75 = or disjoint i32 %74, %70
  store i32 %75, ptr %.03335, align 4
  %76 = getelementptr inbounds nuw i8, ptr %.037, i64 4
  %77 = getelementptr inbounds nuw i8, ptr %.03335, i64 4
  %78 = add nuw nsw i32 %.03236, 1
  %exitcond.not = icmp eq i32 %78, %2
  br i1 %exitcond.not, label %._crit_edge, label %22, !llvm.loop !79

._crit_edge:                                      ; preds = %22, %5
  %79 = shl nsw i32 %2, 2
  ret i32 %79
}